target datalayout = "e-m:e-p270:32:32-p271:32:32-p272:64:64-i64:64-i128:128-f80:128-n8:16:32:64-S128"
target triple = "x86_64-pc-linux-gnu"

@hf_mbim_set_phonebook_write_save_flag = internal global i32 0, align 4
@hf_mbim_set_phonebook_write_save_index = internal global i32 0, align 4
@hf_mbim_set_phonebook_write_number_offset = internal global i32 0, align 4
@hf_mbim_set_phonebook_write_number_length = internal global i32 0, align 4
@hf_mbim_set_phonebook_write_name_offset = internal global i32 0, align 4
@hf_mbim_set_phonebook_write_name_length = internal global i32 0, align 4
@hf_mbim_set_phonebook_write_number = internal global i32 0, align 4
@hf_mbim_set_phonebook_write_name = internal global i32 0, align 4

; Function Attrs: nounwind uwtable
define internal void @mbim_dissect_set_phonebook_write(ptr noundef %0, ptr noundef %1, ptr noundef %2, i32 noundef %3) #0 {
  %5 = alloca ptr, align 8
  %6 = alloca ptr, align 8
  %7 = alloca ptr, align 8
  %8 = alloca i32, align 4
  %9 = alloca i32, align 4
  %10 = alloca i32, align 4
  %11 = alloca i32, align 4
  %12 = alloca i32, align 4
  %13 = alloca i32, align 4
  store ptr %0, ptr %5, align 8
  store ptr %1, ptr %6, align 8
  store ptr %2, ptr %7, align 8
  store i32 %3, ptr %8, align 4
  %14 = load i32, ptr %8, align 4
  store i32 %14, ptr %9, align 4
  %15 = load ptr, ptr %7, align 8
  %16 = load i32, ptr @hf_mbim_set_phonebook_write_save_flag, align 4
  %17 = load ptr, ptr %5, align 8
  %18 = load i32, ptr %8, align 4
  %19 = call ptr @proto_tree_add_item(ptr noundef %15, i32 noundef %16, ptr noundef %17, i32 noundef %18, i32 noundef 4, i32 noundef -2147483648)
  %20 = load i32, ptr %8, align 4
  %21 = add i32 %20, 4
  store i32 %21, ptr %8, align 4
  %22 = load ptr, ptr %7, align 8
  %23 = load i32, ptr @hf_mbim_set_phonebook_write_save_index, align 4
  %24 = load ptr, ptr %5, align 8
  %25 = load i32, ptr %8, align 4
  %26 = call ptr @proto_tree_add_item(ptr noundef %22, i32 noundef %23, ptr noundef %24, i32 noundef %25, i32 noundef 4, i32 noundef -2147483648)
  %27 = load i32, ptr %8, align 4
  %28 = add i32 %27, 4
  store i32 %28, ptr %8, align 4
  %29 = load ptr, ptr %7, align 8
  %30 = load i32, ptr @hf_mbim_set_phonebook_write_number_offset, align 4
  %31 = load ptr, ptr %5, align 8
  %32 = load i32, ptr %8, align 4
  %33 = call ptr @proto_tree_add_item_ret_uint(ptr noundef %29, i32 noundef %30, ptr noundef %31, i32 noundef %32, i32 noundef 4, i32 noundef -2147483648, ptr noundef %10)
  %34 = load i32, ptr %8, align 4
  %35 = add i32 %34, 4
  store i32 %35, ptr %8, align 4
  %36 = load ptr, ptr %7, align 8
  %37 = load i32, ptr @hf_mbim_set_phonebook_write_number_length, align 4
  %38 = load ptr, ptr %5, align 8
  %39 = load i32, ptr %8, align 4
  %40 = call ptr @proto_tree_add_item_ret_uint(ptr noundef %36, i32 noundef %37, ptr noundef %38, i32 noundef %39, i32 noundef 4, i32 noundef -2147483648, ptr noundef %11)
  %41 = load i32, ptr %8, align 4
  %42 = add i32 %41, 4
  store i32 %42, ptr %8, align 4
  %43 = load ptr, ptr %7, align 8
  %44 = load i32, ptr @hf_mbim_set_phonebook_write_name_offset, align 4
  %45 = load ptr, ptr %5, align 8
  %46 = load i32, ptr %8, align 4
  %47 = call ptr @proto_tree_add_item_ret_uint(ptr noundef %43, i32 noundef %44, ptr noundef %45, i32 noundef %46, i32 noundef 4, i32 noundef -2147483648, ptr noundef %12)
  %48 = load i32, ptr %8, align 4
  %49 = add i32 %48, 4
  store i32 %49, ptr %8, align 4
  %50 = load ptr, ptr %7, align 8
  %51 = load i32, ptr @hf_mbim_set_phonebook_write_name_length, align 4
  %52 = load ptr, ptr %5, align 8
  %53 = load i32, ptr %8, align 4
  %54 = call ptr @proto_tree_add_item_ret_uint(ptr noundef %50, i32 noundef %51, ptr noundef %52, i32 noundef %53, i32 noundef 4, i32 noundef -2147483648, ptr noundef %13)
  %55 = load i32, ptr %10, align 4
  %56 = icmp ne i32 %55, 0
  br i1 %56, label %57, label %69

57:                                               ; preds = %4
  %58 = load i32, ptr %11, align 4
  %59 = icmp ne i32 %58, 0
  br i1 %59, label %60, label %69

60:                                               ; preds = %57
  %61 = load ptr, ptr %7, align 8
  %62 = load i32, ptr @hf_mbim_set_phonebook_write_number, align 4
  %63 = load ptr, ptr %5, align 8
  %64 = load i32, ptr %9, align 4
  %65 = load i32, ptr %10, align 4
  %66 = add i32 %64, %65
  %67 = load i32, ptr %11, align 4
  %68 = call ptr @proto_tree_add_item(ptr noundef %61, i32 noundef %62, ptr noundef %63, i32 noundef %66, i32 noundef %67, i32 noundef -2147483644)
  br label %69

69:                                               ; preds = %60, %57, %4
  %70 = load i32, ptr %12, align 4
  %71 = icmp ne i32 %70, 0
  br i1 %71, label %72, label %84

72:                                               ; preds = %69
  %73 = load i32, ptr %13, align 4
  %74 = icmp ne i32 %73, 0
  br i1 %74, label %75, label %84

75:                                               ; preds = %72
  %76 = load ptr, ptr %7, align 8
  %77 = load i32, ptr @hf_mbim_set_phonebook_write_name, align 4
  %78 = load ptr, ptr %5, align 8
  %79 = load i32, ptr %9, align 4
  %80 = load i32, ptr %12, align 4
  %81 = add i32 %79, %80
  %82 = load i32, ptr %13, align 4
  %83 = call ptr @proto_tree_add_item(ptr noundef %76, i32 noundef %77, ptr noundef %78, i32 noundef %81, i32 noundef %82, i32 noundef -2147483644)
  br label %84

84:                                               ; preds = %75, %72, %69
  ret void
}