; Function Attrs: nounwind uwtable
define internal fastcc void @mbim_dissect_set_phonebook_write(ptr noundef %0, ptr noundef %1, i32 noundef %2) unnamed_addr #0 {
  %4 = alloca i32, align 4
  %5 = alloca i32, align 4
  %6 = alloca i32, align 4
  %7 = alloca i32, align 4
  %8 = load i32, ptr @hf_mbim_set_phonebook_write_save_flag, align 4
  %9 = tail call ptr @proto_tree_add_item(ptr noundef %1, i32 noundef %8, ptr noundef %0, i32 noundef %2, i32 noundef 4, i32 noundef -2147483648) #10
  %10 = add i32 %2, 4
  %11 = load i32, ptr @hf_mbim_set_phonebook_write_save_index, align 4
  %12 = tail call ptr @proto_tree_add_item(ptr noundef %1, i32 noundef %11, ptr noundef %0, i32 noundef %10, i32 noundef 4, i32 noundef -2147483648) #10
  %13 = add i32 %2, 8
  %14 = load i32, ptr @hf_mbim_set_phonebook_write_number_offset, align 4
  %15 = call ptr @proto_tree_add_item_ret_uint(ptr noundef %1, i32 noundef %14, ptr noundef %0, i32 noundef %13, i32 noundef 4, i32 noundef -2147483648, ptr noundef nonnull %4) #10
  %16 = add i32 %2, 12
  %17 = load i32, ptr @hf_mbim_set_phonebook_write_number_length, align 4
  %18 = call ptr @proto_tree_add_item_ret_uint(ptr noundef %1, i32 noundef %17, ptr noundef %0, i32 noundef %16, i32 noundef 4, i32 noundef -2147483648, ptr noundef nonnull %5) #10
  %19 = add i32 %2, 16
  %20 = load i32, ptr @hf_mbim_set_phonebook_write_name_offset, align 4
  %21 = call ptr @proto_tree_add_item_ret_uint(ptr noundef %1, i32 noundef %20, ptr noundef %0, i32 noundef %19, i32 noundef 4, i32 noundef -2147483648, ptr noundef nonnull %6) #10
  %22 = add i32 %2, 20
  %23 = load i32, ptr @hf_mbim_set_phonebook_write_name_length, align 4
  %24 = call ptr @proto_tree_add_item_ret_uint(ptr noundef %1, i32 noundef %23, ptr noundef %0, i32 noundef %22, i32 noundef 4, i32 noundef -2147483648, ptr noundef nonnull %7) #10
  %25 = load i32, ptr %4, align 4
  %26 = icmp ne i32 %25, 0
  %27 = load i32, ptr %5, align 4
  %28 = icmp ne i32 %27, 0
  %or.cond = select i1 %26, i1 %28, i1 false
  br i1 %or.cond, label %29, label %33

29:                                               ; preds = %3
  %30 = load i32, ptr @hf_mbim_set_phonebook_write_number, align 4
  %31 = add i32 %25, %2
  %32 = call ptr @proto_tree_add_item(ptr noundef %1, i32 noundef %30, ptr noundef %0, i32 noundef %31, i32 noundef %27, i32 noundef -2147483644) #10
  br label %33

33:                                               ; preds = %29, %3
  %34 = load i32, ptr %6, align 4
  %35 = icmp ne i32 %34, 0
  %36 = load i32, ptr %7, align 4
  %37 = icmp ne i32 %36, 0
  %or.cond3 = select i1 %35, i1 %37, i1 false
  br i1 %or.cond3, label %38, label %42

38:                                               ; preds = %33
  %39 = load i32, ptr @hf_mbim_set_phonebook_write_name, align 4
  %40 = add i32 %34, %2
  %41 = call ptr @proto_tree_add_item(ptr noundef %1, i32 noundef %39, ptr noundef %0, i32 noundef %40, i32 noundef %36, i32 noundef -2147483644) #10
  br label %42

42:                                               ; preds = %38, %33
  ret void
}